target datalayout = "e-m:e-p270:32:32-p271:32:32-p272:64:64-i64:64-i128:128-f80:128-n8:16:32:64-S128"
target triple = "x86_64-pc-linux-gnu"

%struct.ZSTD_customMem = type { ptr, ptr, ptr }
%struct.POOL_ctx_s = type { %struct.ZSTD_customMem, ptr, i64, i64, ptr, i64, i64, i64, i64, i32, %union.pthread_mutex_t, %union.pthread_cond_t, %union.pthread_cond_t, i32 }
%union.pthread_mutex_t = type { %struct.__pthread_mutex_s }
%struct.__pthread_mutex_s = type { i32, i32, i32, i32, i32, i16, i16, %struct.__pthread_internal_list }
%struct.__pthread_internal_list = type { ptr, ptr }
%union.pthread_cond_t = type { %struct.__pthread_cond_s }
%struct.__pthread_cond_s = type { %union.__atomic_wide_counter, %union.__atomic_wide_counter, [2 x i32], [2 x i32], i32, i32, [2 x i32] }
%union.__atomic_wide_counter = type { i64 }

; Function Attrs: inlinehint nounwind uwtable
define internal void @ZSTD_customFree(ptr noundef %0, ptr noundef byval(%struct.ZSTD_customMem) align 8 %1) #2 {
  %3 = alloca ptr, align 8
  store ptr %0, ptr %3, align 8, !tbaa !26
  %4 = load ptr, ptr %3, align 8, !tbaa !26
  %5 = icmp ne ptr %4, null
  br i1 %5, label %6, label %19

6:                                                ; preds = %2
  %7 = getelementptr inbounds nuw %struct.ZSTD_customMem, ptr %1, i32 0, i32 1
  %8 = load ptr, ptr %7, align 8, !tbaa !38
  %9 = icmp ne ptr %8, null
  br i1 %9, label %10, label %16

10:                                               ; preds = %6
  %11 = getelementptr inbounds nuw %struct.ZSTD_customMem, ptr %1, i32 0, i32 1
  %12 = load ptr, ptr %11, align 8, !tbaa !38
  %13 = getelementptr inbounds nuw %struct.ZSTD_customMem, ptr %1, i32 0, i32 2
  %14 = load ptr, ptr %13, align 8, !tbaa !31
  %15 = load ptr, ptr %3, align 8, !tbaa !26
  call void %12(ptr noundef %14, ptr noundef %15)
  br label %18

16:                                               ; preds = %6
  %17 = load ptr, ptr %3, align 8, !tbaa !26
  call void @free(ptr noundef %17) #8
  br label %18

18:                                               ; preds = %16, %10
  br label %19

19:                                               ; preds = %18, %2
  ret void
}

; Function Attrs: inlinehint nounwind uwtable
define internal ptr @ZSTD_customCalloc(i64 noundef %0, ptr noundef byval(%struct.ZSTD_customMem) align 8 %1) #2 {
  %3 = alloca ptr, align 8
  %4 = alloca i64, align 8
  %5 = alloca ptr, align 8
  store i64 %0, ptr %4, align 8, !tbaa !3
  %6 = getelementptr inbounds nuw %struct.ZSTD_customMem, ptr %1, i32 0, i32 0
  %7 = load ptr, ptr %6, align 8, !tbaa !30
  %8 = icmp ne ptr %7, null
  br i1 %8, label %9, label %19

9:                                                ; preds = %2
  call void @llvm.lifetime.start.p0(i64 8, ptr %5) #8
  %10 = getelementptr inbounds nuw %struct.ZSTD_customMem, ptr %1, i32 0, i32 0
  %11 = load ptr, ptr %10, align 8, !tbaa !30
  %12 = getelementptr inbounds nuw %struct.ZSTD_customMem, ptr %1, i32 0, i32 2
  %13 = load ptr, ptr %12, align 8, !tbaa !31
  %14 = load i64, ptr %4, align 8, !tbaa !3
  %15 = call ptr %11(ptr noundef %13, i64 noundef %14)
  store ptr %15, ptr %5, align 8, !tbaa !26
  %16 = load ptr, ptr %5, align 8, !tbaa !26
  %17 = load i64, ptr %4, align 8, !tbaa !3
  call void @llvm.memset.p0.i64(ptr align 1 %16, i8 0, i64 %17, i1 false)
  %18 = load ptr, ptr %5, align 8, !tbaa !26
  store ptr %18, ptr %3, align 8
  call void @llvm.lifetime.end.p0(i64 8, ptr %5) #8
  br label %22

19:                                               ; preds = %2
  %20 = load i64, ptr %4, align 8, !tbaa !3
  %21 = call noalias ptr @calloc(i64 noundef 1, i64 noundef %20) #9
  store ptr %21, ptr %3, align 8
  br label %22

22:                                               ; preds = %19, %9
  %23 = load ptr, ptr %3, align 8
  ret ptr %23
}

; Function Attrs: nounwind uwtable
define internal i32 @POOL_resize_internal(ptr noundef %0, i64 noundef %1) #0 {
  %3 = alloca i32, align 4
  %4 = alloca ptr, align 8
  %5 = alloca i64, align 8
  %6 = alloca ptr, align 8
  %7 = alloca i32, align 4
  %8 = alloca i64, align 8
  store ptr %0, ptr %4, align 8, !tbaa !7
  store i64 %1, ptr %5, align 8, !tbaa !3
  %9 = load i64, ptr %5, align 8, !tbaa !3
  %10 = load ptr, ptr %4, align 8, !tbaa !7
  %11 = getelementptr inbounds nuw %struct.POOL_ctx_s, ptr %10, i32 0, i32 2
  %12 = load i64, ptr %11, align 8, !tbaa !24
  %13 = icmp ule i64 %9, %12
  br i1 %13, label %14, label %22

14:                                               ; preds = %2
  %15 = load i64, ptr %5, align 8, !tbaa !3
  %16 = icmp ne i64 %15, 0
  br i1 %16, label %18, label %17

17:                                               ; preds = %14
  store i32 1, ptr %3, align 4
  br label %83

18:                                               ; preds = %14
  %19 = load i64, ptr %5, align 8, !tbaa !3
  %20 = load ptr, ptr %4, align 8, !tbaa !7
  %21 = getelementptr inbounds nuw %struct.POOL_ctx_s, ptr %20, i32 0, i32 3
  store i64 %19, ptr %21, align 8, !tbaa !29
  store i32 0, ptr %3, align 4
  br label %83

22:                                               ; preds = %2
  call void @llvm.lifetime.start.p0(i64 8, ptr %6) #8
  %23 = load i64, ptr %5, align 8, !tbaa !3
  %24 = mul i64 %23, 8
  %25 = load ptr, ptr %4, align 8, !tbaa !7
  %26 = getelementptr inbounds nuw %struct.POOL_ctx_s, ptr %25, i32 0, i32 0
  %27 = call ptr @ZSTD_customCalloc(i64 noundef %24, ptr noundef byval(%struct.ZSTD_customMem) align 8 %26)
  store ptr %27, ptr %6, align 8, !tbaa !40
  %28 = load ptr, ptr %6, align 8, !tbaa !40
  %29 = icmp ne ptr %28, null
  br i1 %29, label %31, label %30

30:                                               ; preds = %22
  store i32 1, ptr %3, align 4
  store i32 1, ptr %7, align 4
  br label %74

31:                                               ; preds = %22
  %32 = load ptr, ptr %6, align 8, !tbaa !40
  %33 = load ptr, ptr %4, align 8, !tbaa !7
  %34 = getelementptr inbounds nuw %struct.POOL_ctx_s, ptr %33, i32 0, i32 1
  %35 = load ptr, ptr %34, align 8, !tbaa !23
  %36 = load ptr, ptr %4, align 8, !tbaa !7
  %37 = getelementptr inbounds nuw %struct.POOL_ctx_s, ptr %36, i32 0, i32 2
  %38 = load i64, ptr %37, align 8, !tbaa !24
  %39 = mul i64 %38, 8
  call void @llvm.memcpy.p0.p0.i64(ptr align 8 %32, ptr align 8 %35, i64 %39, i1 false)
  %40 = load ptr, ptr %4, align 8, !tbaa !7
  %41 = getelementptr inbounds nuw %struct.POOL_ctx_s, ptr %40, i32 0, i32 1
  %42 = load ptr, ptr %41, align 8, !tbaa !23
  %43 = load ptr, ptr %4, align 8, !tbaa !7
  %44 = getelementptr inbounds nuw %struct.POOL_ctx_s, ptr %43, i32 0, i32 0
  call void @ZSTD_customFree(ptr noundef %42, ptr noundef byval(%struct.ZSTD_customMem) align 8 %44)
  %45 = load ptr, ptr %6, align 8, !tbaa !40
  %46 = load ptr, ptr %4, align 8, !tbaa !7
  %47 = getelementptr inbounds nuw %struct.POOL_ctx_s, ptr %46, i32 0, i32 1
  store ptr %45, ptr %47, align 8, !tbaa !23
  call void @llvm.lifetime.start.p0(i64 8, ptr %8) #8
  %48 = load ptr, ptr %4, align 8, !tbaa !7
  %49 = getelementptr inbounds nuw %struct.POOL_ctx_s, ptr %48, i32 0, i32 2
  %50 = load i64, ptr %49, align 8, !tbaa !24
  store i64 %50, ptr %8, align 8, !tbaa !3
  br label %51

51:                                               ; preds = %67, %31
  %52 = load i64, ptr %8, align 8, !tbaa !3
  %53 = load i64, ptr %5, align 8, !tbaa !3
  %54 = icmp ult i64 %52, %53
  br i1 %54, label %55, label %70

55:                                               ; preds = %51
  %56 = load ptr, ptr %6, align 8, !tbaa !40
  %57 = load i64, ptr %8, align 8, !tbaa !3
  %58 = getelementptr inbounds nuw i64, ptr %56, i64 %57
  %59 = load ptr, ptr %4, align 8, !tbaa !7
  %60 = call i32 @pthread_create(ptr noundef %58, ptr noundef null, ptr noundef @POOL_thread, ptr noundef %59) #8
  %61 = icmp ne i32 %60, 0
  br i1 %61, label %62, label %66

62:                                               ; preds = %55
  %63 = load i64, ptr %8, align 8, !tbaa !3
  %64 = load ptr, ptr %4, align 8, !tbaa !7
  %65 = getelementptr inbounds nuw %struct.POOL_ctx_s, ptr %64, i32 0, i32 2
  store i64 %63, ptr %65, align 8, !tbaa !24
  store i32 1, ptr %3, align 4
  store i32 1, ptr %7, align 4
  br label %71

66:                                               ; preds = %55
  br label %67

67:                                               ; preds = %66
  %68 = load i64, ptr %8, align 8, !tbaa !3
  %69 = add i64 %68, 1
  store i64 %69, ptr %8, align 8, !tbaa !3
  br label %51, !llvm.loop !41

70:                                               ; preds = %51
  store i32 0, ptr %7, align 4
  br label %71

71:                                               ; preds = %70, %62
  call void @llvm.lifetime.end.p0(i64 8, ptr %8) #8
  %72 = load i32, ptr %7, align 4
  switch i32 %72, label %74 [
    i32 0, label %73
  ]

73:                                               ; preds = %71
  store i32 0, ptr %7, align 4
  br label %74

74:                                               ; preds = %73, %71, %30
  call void @llvm.lifetime.end.p0(i64 8, ptr %6) #8
  %75 = load i32, ptr %7, align 4
  switch i32 %75, label %85 [
    i32 0, label %76
    i32 1, label %83
  ]

76:                                               ; preds = %74
  %77 = load i64, ptr %5, align 8, !tbaa !3
  %78 = load ptr, ptr %4, align 8, !tbaa !7
  %79 = getelementptr inbounds nuw %struct.POOL_ctx_s, ptr %78, i32 0, i32 2
  store i64 %77, ptr %79, align 8, !tbaa !24
  %80 = load i64, ptr %5, align 8, !tbaa !3
  %81 = load ptr, ptr %4, align 8, !tbaa !7
  %82 = getelementptr inbounds nuw %struct.POOL_ctx_s, ptr %81, i32 0, i32 3
  store i64 %80, ptr %82, align 8, !tbaa !29
  store i32 0, ptr %3, align 4
  br label %83

83:                                               ; preds = %76, %74, %18, %17
  %84 = load i32, ptr %3, align 4
  ret i32 %84

85:                                               ; preds = %74
  unreachable
}

; Function Attrs: nounwind uwtable
define i32 @POOL_resize(ptr noundef %0, i64 noundef %1) #0 {
  %3 = alloca i32, align 4
  %4 = alloca ptr, align 8
  %5 = alloca i64, align 8
  %6 = alloca i32, align 4
  %7 = alloca i32, align 4
  store ptr %0, ptr %4, align 8, !tbaa !7
  store i64 %1, ptr %5, align 8, !tbaa !3
  call void @llvm.lifetime.start.p0(i64 4, ptr %6) #8
  %8 = load ptr, ptr %4, align 8, !tbaa !7
  %9 = icmp eq ptr %8, null
  br i1 %9, label %10, label %11

10:                                               ; preds = %2
  store i32 1, ptr %3, align 4
  store i32 1, ptr %7, align 4
  br label %25

11:                                               ; preds = %2
  %12 = load ptr, ptr %4, align 8, !tbaa !7
  %13 = getelementptr inbounds nuw %struct.POOL_ctx_s, ptr %12, i32 0, i32 10
  %14 = call i32 @pthread_mutex_lock(ptr noundef %13) #8
  %15 = load ptr, ptr %4, align 8, !tbaa !7
  %16 = load i64, ptr %5, align 8, !tbaa !3
  %17 = call i32 @POOL_resize_internal(ptr noundef %15, i64 noundef %16)
  store i32 %17, ptr %6, align 4, !tbaa !21
  %18 = load ptr, ptr %4, align 8, !tbaa !7
  %19 = getelementptr inbounds nuw %struct.POOL_ctx_s, ptr %18, i32 0, i32 12
  %20 = call i32 @pthread_cond_broadcast(ptr noundef %19) #8
  %21 = load ptr, ptr %4, align 8, !tbaa !7
  %22 = getelementptr inbounds nuw %struct.POOL_ctx_s, ptr %21, i32 0, i32 10
  %23 = call i32 @pthread_mutex_unlock(ptr noundef %22) #8
  %24 = load i32, ptr %6, align 4, !tbaa !21
  store i32 %24, ptr %3, align 4
  store i32 1, ptr %7, align 4
  br label %25

25:                                               ; preds = %11, %10
  call void @llvm.lifetime.end.p0(i64 4, ptr %6) #8
  %26 = load i32, ptr %3, align 4
  ret i32 %26
}