; Function Attrs: nounwind uwtable
define range(i32 0, 2) i32 @POOL_resize(ptr noundef %0, i64 noundef %1) local_unnamed_addr #0 {
  %3 = icmp eq ptr %0, null
  br i1 %3, label %40, label %4

4:                                                ; preds = %2
  %5 = getelementptr inbounds nuw i8, ptr %0, i64 96
  %6 = tail call i32 @pthread_mutex_lock(ptr noundef nonnull %5) #9
  %7 = getelementptr inbounds nuw i8, ptr %0, i64 32
  %8 = load i64, ptr %7, align 8, !tbaa !19
  %.not.i = icmp ugt i64 %1, %8
  br i1 %.not.i, label %12, label %9

9:                                                ; preds = %4
  %.not37.i = icmp eq i64 %1, 0
  br i1 %.not37.i, label %POOL_resize_internal.exit, label %10

10:                                               ; preds = %9
  %11 = getelementptr inbounds nuw i8, ptr %0, i64 40
  store i64 %1, ptr %11, align 8, !tbaa !24
  br label %POOL_resize_internal.exit

12:                                               ; preds = %4
  %13 = shl i64 %1, 3
  %.val.i = load ptr, ptr %0, align 8, !tbaa !3
  %14 = getelementptr i8, ptr %0, i64 16
  %.not.i.i = icmp eq ptr %.val.i, null
  br i1 %.not.i.i, label %17, label %15

15:                                               ; preds = %12
  %.val38.i = load ptr, ptr %14, align 8
  %16 = tail call ptr %.val.i(ptr noundef %.val38.i, i64 noundef %13) #9
  tail call void @llvm.memset.p0.i64(ptr align 1 %16, i8 0, i64 %13, i1 false)
  br label %ZSTD_customCalloc.exit.i

17:                                               ; preds = %12
  %18 = tail call noalias ptr @calloc(i64 noundef 1, i64 noundef %13) #8
  br label %ZSTD_customCalloc.exit.i

ZSTD_customCalloc.exit.i:                         ; preds = %17, %15
  %.0.i.i = phi ptr [ %16, %15 ], [ %18, %17 ]
  %.not35.i = icmp eq ptr %.0.i.i, null
  br i1 %.not35.i, label %POOL_resize_internal.exit, label %19

19:                                               ; preds = %ZSTD_customCalloc.exit.i
  %20 = getelementptr inbounds nuw i8, ptr %0, i64 24
  %21 = load ptr, ptr %20, align 8, !tbaa !18
  %22 = load i64, ptr %7, align 8, !tbaa !19
  %23 = shl i64 %22, 3
  tail call void @llvm.memcpy.p0.p0.i64(ptr nonnull align 8 %.0.i.i, ptr align 8 %21, i64 %23, i1 false)
  %24 = load ptr, ptr %20, align 8, !tbaa !18
  %25 = getelementptr i8, ptr %0, i64 8
  %.val39.i = load ptr, ptr %25, align 8
  %.val40.i = load ptr, ptr %14, align 8
  %.not.i41.i = icmp eq ptr %24, null
  br i1 %.not.i41.i, label %ZSTD_customFree.exit.i, label %26

26:                                               ; preds = %19
  %.not4.i.i = icmp eq ptr %.val39.i, null
  br i1 %.not4.i.i, label %28, label %27

27:                                               ; preds = %26
  tail call void %.val39.i(ptr noundef %.val40.i, ptr noundef nonnull %24) #9
  br label %ZSTD_customFree.exit.i

28:                                               ; preds = %26
  tail call void @free(ptr noundef nonnull %24) #9
  br label %ZSTD_customFree.exit.i

ZSTD_customFree.exit.i:                           ; preds = %28, %27, %19
  store ptr %.0.i.i, ptr %20, align 8, !tbaa !18
  %29 = load i64, ptr %7, align 8, !tbaa !19
  %30 = icmp ult i64 %29, %1
  br i1 %30, label %.lr.ph.i, label %._crit_edge.i

.lr.ph.i:                                         ; preds = %ZSTD_customFree.exit.i, %34
  %.045.i = phi i64 [ %35, %34 ], [ %29, %ZSTD_customFree.exit.i ]
  %31 = getelementptr inbounds nuw i64, ptr %.0.i.i, i64 %.045.i
  %32 = tail call i32 @pthread_create(ptr noundef nonnull %31, ptr noundef null, ptr noundef nonnull @POOL_thread, ptr noundef nonnull %0) #9
  %.not36.i = icmp eq i32 %32, 0
  br i1 %.not36.i, label %34, label %33

33:                                               ; preds = %.lr.ph.i
  store i64 %.045.i, ptr %7, align 8, !tbaa !19
  br label %POOL_resize_internal.exit

34:                                               ; preds = %.lr.ph.i
  %35 = add i64 %.045.i, 1
  %exitcond.not.i = icmp eq i64 %35, %1
  br i1 %exitcond.not.i, label %._crit_edge.i, label %.lr.ph.i, !llvm.loop !31

._crit_edge.i:                                    ; preds = %34, %ZSTD_customFree.exit.i
  store i64 %1, ptr %7, align 8, !tbaa !19
  %36 = getelementptr inbounds nuw i8, ptr %0, i64 40
  store i64 %1, ptr %36, align 8, !tbaa !24
  br label %POOL_resize_internal.exit

POOL_resize_internal.exit:                        ; preds = %9, %10, %ZSTD_customCalloc.exit.i, %33, %._crit_edge.i
  %.031.i = phi i32 [ 0, %10 ], [ 0, %._crit_edge.i ], [ 1, %9 ], [ 1, %ZSTD_customCalloc.exit.i ], [ 1, %33 ]
  %37 = getelementptr inbounds nuw i8, ptr %0, i64 184
  %38 = tail call i32 @pthread_cond_broadcast(ptr noundef nonnull %37) #9
  %39 = tail call i32 @pthread_mutex_unlock(ptr noundef nonnull %5) #9
  br label %40

40:                                               ; preds = %2, %POOL_resize_internal.exit
  %.0 = phi i32 [ %.031.i, %POOL_resize_internal.exit ], [ 1, %2 ]
  ret i32 %.0
}